target datalayout = "e-m:e-p270:32:32-p271:32:32-p272:64:64-i64:64-i128:128-f80:128-n8:16:32:64-S128"
target triple = "x86_64-pc-linux-gnu"

%struct.Abc_Obj_t_ = type { ptr, ptr, i32, i32, %struct.Vec_Int_t_, %struct.Vec_Int_t_, %union.anon, %union.anon.0 }
%struct.Vec_Int_t_ = type { i32, i32, ptr }
%union.anon = type { ptr }
%union.anon.0 = type { ptr }
%struct.Vec_Ptr_t_ = type { i32, i32, ptr }
%struct.Abc_Ntk_t_ = type { i32, i32, ptr, ptr, ptr, ptr, ptr, ptr, ptr, ptr, ptr, ptr, ptr, [11 x i32], i32, i32, i32, i32, ptr, i32, ptr, ptr, i32, i32, i32, double, i32, %struct.Vec_Int_t_, ptr, ptr, ptr, ptr, ptr, float, i32, ptr, ptr, ptr, ptr, ptr, ptr, ptr, ptr, ptr, ptr, ptr, ptr, ptr, ptr, ptr, ptr, ptr, ptr, ptr, ptr, ptr, ptr }

; Function Attrs: inlinehint nounwind uwtable
define internal i32 @Abc_ObjFanoutNum(ptr noundef %0) #2 {
  %2 = alloca ptr, align 8
  store ptr %0, ptr %2, align 8, !tbaa !8
  %3 = load ptr, ptr %2, align 8, !tbaa !8
  %4 = getelementptr inbounds nuw %struct.Abc_Obj_t_, ptr %3, i32 0, i32 5
  %5 = getelementptr inbounds nuw %struct.Vec_Int_t_, ptr %4, i32 0, i32 1
  %6 = load i32, ptr %5, align 4, !tbaa !57
  ret i32 %6
}

; Function Attrs: inlinehint nounwind uwtable
define internal i32 @Abc_ObjIsCi(ptr noundef %0) #2 {
  %2 = alloca ptr, align 8
  store ptr %0, ptr %2, align 8, !tbaa !8
  %3 = load ptr, ptr %2, align 8, !tbaa !8
  %4 = getelementptr inbounds nuw %struct.Abc_Obj_t_, ptr %3, i32 0, i32 3
  %5 = load i32, ptr %4, align 4
  %6 = and i32 %5, 15
  %7 = icmp eq i32 %6, 2
  br i1 %7, label %14, label %8

8:                                                ; preds = %1
  %9 = load ptr, ptr %2, align 8, !tbaa !8
  %10 = getelementptr inbounds nuw %struct.Abc_Obj_t_, ptr %9, i32 0, i32 3
  %11 = load i32, ptr %10, align 4
  %12 = and i32 %11, 15
  %13 = icmp eq i32 %12, 5
  br label %14

14:                                               ; preds = %8, %1
  %15 = phi i1 [ true, %1 ], [ %13, %8 ]
  %16 = zext i1 %15 to i32
  ret i32 %16
}

; Function Attrs: inlinehint nounwind uwtable
define internal ptr @Abc_ObjFanin(ptr noundef %0, i32 noundef %1) #2 {
  %3 = alloca ptr, align 8
  %4 = alloca i32, align 4
  store ptr %0, ptr %3, align 8, !tbaa !8
  store i32 %1, ptr %4, align 4, !tbaa !21
  %5 = load ptr, ptr %3, align 8, !tbaa !8
  %6 = getelementptr inbounds nuw %struct.Abc_Obj_t_, ptr %5, i32 0, i32 0
  %7 = load ptr, ptr %6, align 8, !tbaa !14
  %8 = getelementptr inbounds nuw %struct.Abc_Ntk_t_, ptr %7, i32 0, i32 5
  %9 = load ptr, ptr %8, align 8, !tbaa !43
  %10 = getelementptr inbounds nuw %struct.Vec_Ptr_t_, ptr %9, i32 0, i32 2
  %11 = load ptr, ptr %10, align 8, !tbaa !40
  %12 = load ptr, ptr %3, align 8, !tbaa !8
  %13 = getelementptr inbounds nuw %struct.Abc_Obj_t_, ptr %12, i32 0, i32 4
  %14 = getelementptr inbounds nuw %struct.Vec_Int_t_, ptr %13, i32 0, i32 2
  %15 = load ptr, ptr %14, align 8, !tbaa !56
  %16 = load i32, ptr %4, align 4, !tbaa !21
  %17 = sext i32 %16 to i64
  %18 = getelementptr inbounds i32, ptr %15, i64 %17
  %19 = load i32, ptr %18, align 4, !tbaa !21
  %20 = sext i32 %19 to i64
  %21 = getelementptr inbounds ptr, ptr %11, i64 %20
  %22 = load ptr, ptr %21, align 8, !tbaa !41
  ret ptr %22
}

; Function Attrs: inlinehint nounwind uwtable
define internal i32 @Abc_ObjFaninNum(ptr noundef %0) #2 {
  %2 = alloca ptr, align 8
  store ptr %0, ptr %2, align 8, !tbaa !8
  %3 = load ptr, ptr %2, align 8, !tbaa !8
  %4 = getelementptr inbounds nuw %struct.Abc_Obj_t_, ptr %3, i32 0, i32 4
  %5 = getelementptr inbounds nuw %struct.Vec_Int_t_, ptr %4, i32 0, i32 1
  %6 = load i32, ptr %5, align 4, !tbaa !55
  ret i32 %6
}

; Function Attrs: nounwind uwtable
define i32 @Abc_NtkMfsResubNode2(ptr noundef %0, ptr noundef %1) #0 {
  %3 = alloca i32, align 4
  %4 = alloca ptr, align 8
  %5 = alloca ptr, align 8
  %6 = alloca ptr, align 8
  %7 = alloca ptr, align 8
  %8 = alloca i32, align 4
  %9 = alloca i32, align 4
  %10 = alloca i32, align 4
  store ptr %0, ptr %4, align 8, !tbaa !3
  store ptr %1, ptr %5, align 8, !tbaa !8
  call void @llvm.lifetime.start.p0(i64 8, ptr %6) #8
  call void @llvm.lifetime.start.p0(i64 8, ptr %7) #8
  call void @llvm.lifetime.start.p0(i64 4, ptr %8) #8
  call void @llvm.lifetime.start.p0(i64 4, ptr %9) #8
  %11 = load ptr, ptr %5, align 8, !tbaa !8
  %12 = call i32 @Abc_ObjFaninNum(ptr noundef %11)
  %13 = icmp slt i32 %12, 2
  br i1 %13, label %14, label %15

14:                                               ; preds = %2
  store i32 0, ptr %3, align 4
  store i32 1, ptr %10, align 4
  br label %69

15:                                               ; preds = %2
  store i32 0, ptr %8, align 4, !tbaa !21
  br label %16

16:                                               ; preds = %65, %15
  %17 = load i32, ptr %8, align 4, !tbaa !21
  %18 = load ptr, ptr %5, align 8, !tbaa !8
  %19 = call i32 @Abc_ObjFaninNum(ptr noundef %18)
  %20 = icmp slt i32 %17, %19
  br i1 %20, label %21, label %25

21:                                               ; preds = %16
  %22 = load ptr, ptr %5, align 8, !tbaa !8
  %23 = load i32, ptr %8, align 4, !tbaa !21
  %24 = call ptr @Abc_ObjFanin(ptr noundef %22, i32 noundef %23)
  store ptr %24, ptr %6, align 8, !tbaa !8
  br label %25

25:                                               ; preds = %21, %16
  %26 = phi i1 [ false, %16 ], [ true, %21 ]
  br i1 %26, label %27, label %68

27:                                               ; preds = %25
  %28 = load ptr, ptr %6, align 8, !tbaa !8
  %29 = call i32 @Abc_ObjIsCi(ptr noundef %28)
  %30 = icmp ne i32 %29, 0
  br i1 %30, label %64, label %31

31:                                               ; preds = %27
  %32 = load ptr, ptr %6, align 8, !tbaa !8
  %33 = call i32 @Abc_ObjFanoutNum(ptr noundef %32)
  %34 = icmp eq i32 %33, 1
  br i1 %34, label %35, label %64

35:                                               ; preds = %31
  store i32 0, ptr %9, align 4, !tbaa !21
  br label %36

36:                                               ; preds = %60, %35
  %37 = load i32, ptr %9, align 4, !tbaa !21
  %38 = load ptr, ptr %5, align 8, !tbaa !8
  %39 = call i32 @Abc_ObjFaninNum(ptr noundef %38)
  %40 = icmp slt i32 %37, %39
  br i1 %40, label %41, label %45

41:                                               ; preds = %36
  %42 = load ptr, ptr %5, align 8, !tbaa !8
  %43 = load i32, ptr %9, align 4, !tbaa !21
  %44 = call ptr @Abc_ObjFanin(ptr noundef %42, i32 noundef %43)
  store ptr %44, ptr %7, align 8, !tbaa !8
  br label %45

45:                                               ; preds = %41, %36
  %46 = phi i1 [ false, %36 ], [ true, %41 ]
  br i1 %46, label %47, label %63

47:                                               ; preds = %45
  %48 = load i32, ptr %8, align 4, !tbaa !21
  %49 = load i32, ptr %9, align 4, !tbaa !21
  %50 = icmp ne i32 %48, %49
  br i1 %50, label %51, label %59

51:                                               ; preds = %47
  %52 = load ptr, ptr %4, align 8, !tbaa !3
  %53 = load ptr, ptr %5, align 8, !tbaa !8
  %54 = load i32, ptr %8, align 4, !tbaa !21
  %55 = load i32, ptr %9, align 4, !tbaa !21
  %56 = call i32 @Abc_NtkMfsSolveSatResub2(ptr noundef %52, ptr noundef %53, i32 noundef %54, i32 noundef %55)
  %57 = icmp ne i32 %56, 0
  br i1 %57, label %58, label %59

58:                                               ; preds = %51
  store i32 1, ptr %3, align 4
  store i32 1, ptr %10, align 4
  br label %69

59:                                               ; preds = %51, %47
  br label %60

60:                                               ; preds = %59
  %61 = load i32, ptr %9, align 4, !tbaa !21
  %62 = add nsw i32 %61, 1
  store i32 %62, ptr %9, align 4, !tbaa !21
  br label %36, !llvm.loop !127

63:                                               ; preds = %45
  br label %64

64:                                               ; preds = %63, %31, %27
  br label %65

65:                                               ; preds = %64
  %66 = load i32, ptr %8, align 4, !tbaa !21
  %67 = add nsw i32 %66, 1
  store i32 %67, ptr %8, align 4, !tbaa !21
  br label %16, !llvm.loop !128

68:                                               ; preds = %25
  store i32 0, ptr %3, align 4
  store i32 1, ptr %10, align 4
  br label %69

69:                                               ; preds = %68, %58, %14
  call void @llvm.lifetime.end.p0(i64 4, ptr %9) #8
  call void @llvm.lifetime.end.p0(i64 4, ptr %8) #8
  call void @llvm.lifetime.end.p0(i64 8, ptr %7) #8
  call void @llvm.lifetime.end.p0(i64 8, ptr %6) #8
  %70 = load i32, ptr %3, align 4
  ret i32 %70
}