; Function Attrs: nounwind uwtable
define range(i32 0, 2) i32 @Abc_NtkMfsResubNode2(ptr noundef %0, ptr noundef %1) local_unnamed_addr #0 {
  %3 = getelementptr i8, ptr %1, i64 28
  %.val26 = load i32, ptr %3, align 4, !tbaa !68
  %4 = icmp slt i32 %.val26, 2
  br i1 %4, label %.critedge, label %.lr.ph42

.lr.ph42:                                         ; preds = %2
  %5 = getelementptr i8, ptr %1, i64 32
  br label %6

6:                                                ; preds = %.lr.ph42, %.critedge2
  %.val2551 = phi i32 [ %.val26, %.lr.ph42 ], [ %.val25, %.critedge2 ]
  %indvars.iv = phi i64 [ 0, %.lr.ph42 ], [ %indvars.iv.next, %.critedge2 ]
  %.val29 = load ptr, ptr %1, align 8, !tbaa !3
  %.val30 = load ptr, ptr %5, align 8, !tbaa !69
  %7 = getelementptr i8, ptr %.val29, i64 32
  %.val29.val = load ptr, ptr %7, align 8, !tbaa !70
  %8 = getelementptr i8, ptr %.val29.val, i64 8
  %.val29.val.val = load ptr, ptr %8, align 8, !tbaa !16
  %9 = getelementptr inbounds nuw i32, ptr %.val30, i64 %indvars.iv
  %10 = load i32, ptr %9, align 4, !tbaa !56
  %11 = sext i32 %10 to i64
  %12 = getelementptr inbounds ptr, ptr %.val29.val.val, i64 %11
  %13 = load ptr, ptr %12, align 8, !tbaa !17
  %14 = getelementptr i8, ptr %13, i64 20
  %.val31 = load i32, ptr %14, align 4
  %15 = and i32 %.val31, 15
  switch i32 %15, label %16 [
    i32 5, label %.critedge2
    i32 2, label %.critedge2
  ]

16:                                               ; preds = %6
  %17 = getelementptr i8, ptr %13, i64 44
  %.val32 = load i32, ptr %17, align 4, !tbaa !79
  %18 = icmp eq i32 %.val32, 1
  %19 = icmp sgt i32 %.val2551, 0
  %or.cond = and i1 %18, %19
  br i1 %or.cond, label %.lr.ph.preheader, label %.critedge2

.lr.ph.preheader:                                 ; preds = %16
  %20 = trunc nuw nsw i64 %indvars.iv to i32
  br label %.lr.ph

.lr.ph:                                           ; preds = %.lr.ph.preheader, %24
  %.val2550 = phi i32 [ %.val2549, %24 ], [ %.val2551, %.lr.ph.preheader ]
  %.val46 = phi i32 [ %.val, %24 ], [ %.val2551, %.lr.ph.preheader ]
  %.038 = phi i32 [ %25, %24 ], [ 0, %.lr.ph.preheader ]
  %21 = zext nneg i32 %.038 to i64
  %.not23 = icmp eq i64 %indvars.iv, %21
  br i1 %.not23, label %24, label %22

22:                                               ; preds = %.lr.ph
  %23 = tail call i32 @Abc_NtkMfsSolveSatResub2(ptr noundef %0, ptr noundef nonnull %1, i32 noundef %20, i32 noundef %.038)
  %.not24 = icmp eq i32 %23, 0
  br i1 %.not24, label %._crit_edge, label %.critedge

._crit_edge:                                      ; preds = %22
  %.val.pre = load i32, ptr %3, align 4, !tbaa !68
  br label %24

24:                                               ; preds = %._crit_edge, %.lr.ph
  %.val2549 = phi i32 [ %.val.pre, %._crit_edge ], [ %.val2550, %.lr.ph ]
  %.val = phi i32 [ %.val.pre, %._crit_edge ], [ %.val46, %.lr.ph ]
  %25 = add nuw nsw i32 %.038, 1
  %26 = icmp slt i32 %25, %.val
  br i1 %26, label %.lr.ph, label %.critedge2, !llvm.loop !112

.critedge2:                                       ; preds = %24, %6, %6, %16
  %.val25 = phi i32 [ %.val2551, %6 ], [ %.val2551, %6 ], [ %.val2551, %16 ], [ %.val2549, %24 ]
  %indvars.iv.next = add nuw nsw i64 %indvars.iv, 1
  %27 = sext i32 %.val25 to i64
  %28 = icmp slt i64 %indvars.iv.next, %27
  br i1 %28, label %6, label %.critedge, !llvm.loop !113

.critedge:                                        ; preds = %.critedge2, %22, %2
  %.022 = phi i32 [ 0, %2 ], [ 1, %22 ], [ 0, %.critedge2 ]
  ret i32 %.022
}